; Function Attrs: nounwind uwtable
define void @dt_ctl_switch_mode() local_unnamed_addr #0 {
  %1 = load ptr, ptr getelementptr inbounds nuw (i8, ptr @darktable, i64 80), align 8, !tbaa !6
  %2 = tail call ptr @dt_view_manager_get_current_view(ptr noundef %1) #13
  %.not = icmp eq ptr %2, null
  br i1 %.not, label %tailrecurse.i.preheader, label %3

3:                                                ; preds = %0
  %4 = getelementptr inbounds nuw i8, ptr %2, i64 216
  %5 = tail call i32 @strcmp(ptr noundef nonnull dereferenceable(1) %4, ptr noundef nonnull dereferenceable(11) @.str.37) #15
  %.not3 = icmp eq i32 %5, 0
  %6 = select i1 %.not3, ptr @.str.38, ptr @.str.37
  br label %tailrecurse.i.preheader

tailrecurse.i.preheader:                          ; preds = %3, %0
  %.tr.i.ph = phi ptr [ %6, %3 ], [ @.str.37, %0 ]
  br label %tailrecurse.i

tailrecurse.i:                                    ; preds = %tailrecurse.i.preheader, %12
  %.tr.i = phi ptr [ @.str.37, %12 ], [ %.tr.i.ph, %tailrecurse.i.preheader ]
  %7 = load ptr, ptr getelementptr inbounds nuw (i8, ptr @darktable, i64 80), align 8, !tbaa !6
  %8 = tail call ptr @dt_view_manager_get_current_view(ptr noundef %7) #13
  %.not.i = icmp eq ptr %8, null
  br i1 %.not.i, label %14, label %9

9:                                                ; preds = %tailrecurse.i
  %10 = getelementptr inbounds nuw i8, ptr %8, i64 216
  %11 = tail call i32 @g_ascii_strcasecmp(ptr noundef nonnull %.tr.i, ptr noundef nonnull %10) #13
  %.not5.i = icmp eq i32 %11, 0
  br i1 %.not5.i, label %12, label %14

12:                                               ; preds = %9
  %13 = tail call i32 @g_ascii_strcasecmp(ptr noundef nonnull %10, ptr noundef nonnull @.str.37) #13
  %.not6.i = icmp eq i32 %13, 0
  br i1 %.not6.i, label %dt_ctl_switch_mode_to.exit, label %tailrecurse.i

14:                                               ; preds = %9, %tailrecurse.i
  tail call void @g_main_context_invoke(ptr noundef null, ptr noundef nonnull @_dt_ctl_switch_mode_to, ptr noundef nonnull %.tr.i) #13
  br label %dt_ctl_switch_mode_to.exit

dt_ctl_switch_mode_to.exit:                       ; preds = %12, %14
  ret void
}